(dp1
S'1.184549889'
p2
(dp3
S'tmnxHwContainedIn'
p4
S'134217730'
p5
sS'tmnxHwClass'
p6
S"'mdaModule'"
p7
sS'tmnxHwParentRelPos'
p8
S'1'
ssS'1.184549634'
p9
(dp10
g4
S'134217729'
p11
sg6
S"'mdaModule'"
p12
sg8
S'2'
ssS'1.184549633'
p13
(dp14
g4
S'134217729'
p15
sg6
S"'mdaModule'"
p16
sg8
S'1'
ssS'1.134217729'
p17
(dp18
g4
S'50331649'
p19
sg6
S"'ioModule'"
p20
sg8
S'1'
ssS'1.184549890'
p21
(dp22
g4
S'134217730'
p23
sg6
S"'mdaModule'"
p24
sg8
S'2'
ssS'1.184551425'
p25
(dp26
g4
S'134217736'
p27
sg6
S"'mdaModule'"
p28
sg8
S'1'
ssS'1.83886082'
p29
(dp30
g4
S'50331649'
p31
sg6
S"'powerSupply'"
p32
sg8
S'2'
ssS'1.83886081'
p33
(dp34
g4
S'50331649'
p35
sg6
S"'powerSupply'"
p36
sg8
S'1'
ssS'1.184550401'
p37
(dp38
g4
S'134217732'
p39
sg6
S"'mdaModule'"
p40
sg8
S'1'
ssS'1.134217738'
p41
(dp42
g4
S'50331649'
p43
sg6
S"'ioModule'"
p44
sg8
S'10'
p45
ssS'1.50331649'
p46
(dp47
g4
S'0'
sg6
S"'chassis'"
p48
sg8
S'-1'
p49
ssS'1.184551937'
p50
(dp51
g4
S'134217738'
p52
sg6
S"'mdaModule'"
p53
sg8
S'1'
ssS'1.184551938'
p54
(dp55
g4
S'134217738'
p56
sg6
S"'mdaModule'"
p57
sg8
S'2'
ssS'1.134217731'
p58
(dp59
g4
S'50331649'
p60
sg6
S"'ioModule'"
p61
sg8
S'3'
ssS'1.134217732'
p62
(dp63
g4
S'50331649'
p64
sg6
S"'ioModule'"
p65
sg8
S'4'
ssS'1.134217733'
p66
(dp67
g4
S'50331649'
p68
sg6
S"'ioModule'"
p69
sg8
S'5'
ssS'1.134217734'
p70
(dp71
g4
S'50331649'
p72
sg6
S"'ioModule'"
p73
sg8
S'6'
ssS'1.134217735'
p74
(dp75
g4
S'50331649'
p76
sg6
S"'ioModule'"
p77
sg8
S'7'
ssS'1.134217736'
p78
(dp79
g4
S'50331649'
p80
sg6
S"'ioModule'"
p81
sg8
S'8'
ssS'1.134217737'
p82
(dp83
g4
S'50331649'
p84
sg6
S"'ioModule'"
p85
sg8
S'9'
ssS'1.134217730'
p86
(dp87
g4
S'50331649'
p88
sg6
S"'ioModule'"
p89
sg8
S'2'
ssS'1.184551426'
p90
(dp91
g4
S'134217736'
p92
sg6
S"'mdaModule'"
p93
sg8
S'2'
ssS'1.184551682'
p94
(dp95
g4
S'134217737'
p96
sg6
S"'mdaModule'"
p97
sg8
S'2'
ssS'1.184551681'
p98
(dp99
g4
S'134217737'
p100
sg6
S"'mdaModule'"
p101
sg8
S'1'
ssS'1.184550146'
p102
(dp103
g4
S'134217731'
p104
sg6
S"'mdaModule'"
p105
sg8
S'2'
ssS'1.184550145'
p106
(dp107
g4
S'134217731'
p108
sg6
S"'mdaModule'"
p109
sg8
S'1'
ss.