(lp1
(dp2
S'tmnxCardHwIndex'
p3
S'134217733'
p4
sS'suffix'
p5
S'1.5'
p6
sa(dp7
g3
S'134217736'
p8
sg5
S'1.8'
p9
sa(dp10
g3
S'134217738'
p11
sg5
S'1.1'
p12
sa(dp13
g3
S'134217734'
p14
sg5
S'1.6'
p15
sa(dp16
g3
S'134217735'
p17
sg5
S'1.7'
p18
sa(dp19
g3
S'134217730'
p20
sg5
S'1.2'
p21
sa(dp22
g3
S'134217731'
p23
sg5
S'1.3'
p24
sa(dp25
g3
S'134217737'
p26
sg5
S'1.9'
p27
sa(dp28
g3
S'134217732'
p29
sg5
S'1.4'
p30
sa.